; Function Attrs: mustprogress uwtable
define void @_ZNK6casadi16SparsityInternal1TEv(ptr dead_on_unwind noalias writable sret(%"class.casadi::Sparsity") align 8 %0, ptr nocapture noundef nonnull readonly align 8 dereferenceable(56) %1) local_unnamed_addr #6 align 2 personality ptr @__gxx_personality_v0 {
  %3 = alloca %"class.std::vector", align 8
  call void @llvm.memset.p0.i64(ptr noundef nonnull align 8 dereferenceable(24) %3, i8 0, i64 24, i1 false)
  invoke void @_ZNK6casadi16SparsityInternal9transposeERSt6vectorIxSaIxEEb(ptr dead_on_unwind writable sret(%"class.casadi::Sparsity") align 8 %0, ptr noundef nonnull align 8 dereferenceable(56) %1, ptr noundef nonnull align 8 dereferenceable(24) %3, i1 noundef zeroext false)
          to label %4 unwind label %7

4:                                                ; preds = %2
  %5 = load ptr, ptr %3, align 8
  %.not.i.i.i = icmp eq ptr %5, null
  br i1 %.not.i.i.i, label %_ZNSt6vectorIxSaIxEED2Ev.exit, label %6

6:                                                ; preds = %4
  call void @_ZdlPv(ptr noundef nonnull %5) #30
  br label %_ZNSt6vectorIxSaIxEED2Ev.exit

_ZNSt6vectorIxSaIxEED2Ev.exit:                    ; preds = %4, %6
  ret void

7:                                                ; preds = %2
  %8 = landingpad { ptr, i32 }
          cleanup
  %9 = load ptr, ptr %3, align 8
  %.not.i.i.i2 = icmp eq ptr %9, null
  br i1 %.not.i.i.i2, label %_ZNSt6vectorIxSaIxEED2Ev.exit3, label %10

10:                                               ; preds = %7
  call void @_ZdlPv(ptr noundef nonnull %9) #30
  br label %_ZNSt6vectorIxSaIxEED2Ev.exit3

_ZNSt6vectorIxSaIxEED2Ev.exit3:                   ; preds = %7, %10
  resume { ptr, i32 } %8
}